; Function Attrs: nounwind uwtable
define ptr @Abc_NtkInsertBlifMv(ptr noundef %0, ptr noundef %1) local_unnamed_addr #0 {
  %3 = tail call ptr @Abc_NtkSkeletonBlifMv(ptr noundef %0)
  %4 = getelementptr i8, ptr %3, i64 80
  %.val = load ptr, ptr %4, align 8, !tbaa !101
  %5 = getelementptr i8, ptr %.val, i64 8
  %.val.val = load ptr, ptr %5, align 8, !tbaa !32
  %6 = load ptr, ptr %.val.val, align 8, !tbaa !33
  %7 = getelementptr inbounds nuw i8, ptr %6, i64 56
  store ptr %1, ptr %7, align 8, !tbaa !48
  %8 = tail call ptr @Abc_NtkFlattenLogicHierarchy(ptr noundef %3) #15
  store ptr null, ptr %7, align 8, !tbaa !48
  tail call void @Abc_NtkDelete(ptr noundef %3) #15
  ret ptr %8
}